target datalayout = "e-m:e-p270:32:32-p271:32:32-p272:64:64-i64:64-i128:128-f80:128-n8:16:32:64-S128"
target triple = "x86_64-unknown-linux-gnu"

%"struct.node::AssertionInfo" = type { ptr, ptr, ptr }
%"struct.node::V8Platform" = type { i8, %"class.std::unique_ptr.342", %"class.std::unique_ptr.350", %"class.node::tracing::AgentWriterHandle", ptr }
%"class.std::unique_ptr.342" = type { %"struct.std::__uniq_ptr_data.343" }
%"struct.std::__uniq_ptr_data.343" = type { %"class.std::__uniq_ptr_impl.344" }
%"class.std::__uniq_ptr_impl.344" = type { %"class.std::tuple.345" }
%"class.std::tuple.345" = type { %"struct.std::_Tuple_impl.346" }
%"struct.std::_Tuple_impl.346" = type { %"struct.std::_Head_base.349" }
%"struct.std::_Head_base.349" = type { ptr }
%"class.std::unique_ptr.350" = type { %"struct.std::__uniq_ptr_data.351" }
%"struct.std::__uniq_ptr_data.351" = type { %"class.std::__uniq_ptr_impl.352" }
%"class.std::__uniq_ptr_impl.352" = type { %"class.std::tuple.353" }
%"class.std::tuple.353" = type { %"struct.std::_Tuple_impl.354" }
%"struct.std::_Tuple_impl.354" = type { %"struct.std::_Head_base.357" }
%"struct.std::_Head_base.357" = type { ptr }
%"class.node::tracing::AgentWriterHandle" = type <{ ptr, i32, [4 x i8] }>
%"class.v8::LocalBase.262" = type { %"class.v8::IndirectHandleBase" }
%"class.v8::IndirectHandleBase" = type { ptr }
%"class.v8::Local.261" = type { %"class.v8::LocalBase.262" }
%"class.v8::Local" = type { %"class.v8::LocalBase" }
%"class.v8::LocalBase" = type { %"class.v8::IndirectHandleBase" }
%"class.std::set" = type { %"class.std::_Rb_tree" }
%"class.std::_Rb_tree" = type { %"struct.std::_Rb_tree<std::__cxx11::basic_string<char>, std::__cxx11::basic_string<char>, std::_Identity<std::__cxx11::basic_string<char>>, std::less<std::__cxx11::basic_string<char>>>::_Rb_tree_impl" }
%"struct.std::_Rb_tree<std::__cxx11::basic_string<char>, std::__cxx11::basic_string<char>, std::_Identity<std::__cxx11::basic_string<char>>, std::less<std::__cxx11::basic_string<char>>>::_Rb_tree_impl" = type { %"struct.std::_Rb_tree_key_compare", %"struct.std::_Rb_tree_header" }
%"struct.std::_Rb_tree_key_compare" = type { %"struct.std::less" }
%"struct.std::less" = type { i8 }
%"struct.std::_Rb_tree_header" = type { %"struct.std::_Rb_tree_node_base", i64 }
%"struct.std::_Rb_tree_node_base" = type { i32, ptr, ptr, ptr }
%"class.node::MemoryRetainer" = type { ptr }
%"class.node::NodeCategorySet" = type { %"class.node::BaseObject", i8, %"class.std::set" }
%"class.node::BaseObject" = type { %"class.node::MemoryRetainer", %"class.v8::Global.259", ptr, ptr }
%"class.v8::Global.259" = type { %"class.v8::PersistentBase.260" }
%"class.v8::PersistentBase.260" = type { %"class.v8::IndirectHandleBase" }

@_ZZN4node15NodeCategorySet7DisableERKN2v820FunctionCallbackInfoINS1_5ValueEEEE4args = internal constant %"struct.node::AssertionInfo" { ptr @.str.8, ptr @.str.6, ptr @.str.9 }, align 8
@_ZN4node11per_process11v8_platformE = external global %"struct.node::V8Platform", align 8

; Function Attrs: mustprogress nounwind uwtable
define linkonce_odr dso_local noundef ptr @_ZN4node10V8Platform21GetTracingAgentWriterEv(ptr noundef nonnull align 8 dereferenceable(48) %this) #4 comdat align 2 {
entry:
  %this.addr = alloca ptr, align 8
  store ptr %this, ptr %this.addr, align 8
  %this1 = load ptr, ptr %this.addr, align 8
  %tracing_file_writer_ = getelementptr inbounds %"struct.node::V8Platform", ptr %this1, i32 0, i32 3
  ret ptr %tracing_file_writer_
}

; Function Attrs: mustprogress nounwind uwtable
define linkonce_odr dso_local noundef zeroext i1 @_ZNKSt8_Rb_treeINSt7__cxx1112basic_stringIcSt11char_traitsIcESaIcEEES5_St9_IdentityIS5_ESt4lessIS5_ESaIS5_EE5emptyEv(ptr noundef nonnull align 8 dereferenceable(48) %this) #4 comdat align 2 {
entry:
  %this.addr = alloca ptr, align 8
  store ptr %this, ptr %this.addr, align 8
  %this1 = load ptr, ptr %this.addr, align 8
  %_M_impl = getelementptr inbounds %"class.std::_Rb_tree", ptr %this1, i32 0, i32 0
  %add.ptr = getelementptr inbounds i8, ptr %_M_impl, i64 8
  %_M_node_count = getelementptr inbounds %"struct.std::_Rb_tree_header", ptr %add.ptr, i32 0, i32 1
  %0 = load i64, ptr %_M_node_count, align 8
  %cmp = icmp eq i64 %0, 0
  ret i1 %cmp
}

; Function Attrs: mustprogress nounwind uwtable
define linkonce_odr dso_local void @_ZN4node7tracing17AgentWriterHandle7DisableERKSt3setINSt7__cxx1112basic_stringIcSt11char_traitsIcESaIcEEESt4lessIS8_ESaIS8_EE(ptr noundef nonnull align 8 dereferenceable(12) %this, ptr noundef nonnull align 8 dereferenceable(48) %categories) #4 comdat align 2 {
entry:
  %this.addr = alloca ptr, align 8
  %categories.addr = alloca ptr, align 8
  store ptr %this, ptr %this.addr, align 8
  store ptr %categories, ptr %categories.addr, align 8
  %this1 = load ptr, ptr %this.addr, align 8
  %agent_ = getelementptr inbounds %"class.node::tracing::AgentWriterHandle", ptr %this1, i32 0, i32 0
  %0 = load ptr, ptr %agent_, align 8
  %cmp = icmp ne ptr %0, null
  br i1 %cmp, label %if.then, label %if.end

if.then:                                          ; preds = %entry
  %agent_2 = getelementptr inbounds %"class.node::tracing::AgentWriterHandle", ptr %this1, i32 0, i32 0
  %1 = load ptr, ptr %agent_2, align 8
  %id_ = getelementptr inbounds %"class.node::tracing::AgentWriterHandle", ptr %this1, i32 0, i32 1
  %2 = load i32, ptr %id_, align 8
  %3 = load ptr, ptr %categories.addr, align 8
  call void @_ZN4node7tracing5Agent7DisableEiRKSt3setINSt7__cxx1112basic_stringIcSt11char_traitsIcESaIcEEESt4lessIS8_ESaIS8_EE(ptr noundef nonnull align 8 dereferenceable(1312) %1, i32 noundef %2, ptr noundef nonnull align 8 dereferenceable(48) %3)
  br label %if.end

if.end:                                           ; preds = %if.then, %entry
  ret void
}

; Function Attrs: mustprogress nounwind uwtable
define linkonce_odr dso_local noundef ptr @_ZN4node21GetTracingAgentWriterEv() #4 comdat {
entry:
  %call = call noundef ptr @_ZN4node10V8Platform21GetTracingAgentWriterEv(ptr noundef nonnull align 8 dereferenceable(48) @_ZN4node11per_process11v8_platformE)
  ret ptr %call
}

; Function Attrs: mustprogress nounwind uwtable
define linkonce_odr dso_local noundef zeroext i1 @_ZNKSt3setINSt7__cxx1112basic_stringIcSt11char_traitsIcESaIcEEESt4lessIS5_ESaIS5_EE5emptyEv(ptr noundef nonnull align 8 dereferenceable(48) %this) #4 comdat align 2 {
entry:
  %this.addr = alloca ptr, align 8
  store ptr %this, ptr %this.addr, align 8
  %this1 = load ptr, ptr %this.addr, align 8
  %_M_t = getelementptr inbounds %"class.std::set", ptr %this1, i32 0, i32 0
  %call = call noundef zeroext i1 @_ZNKSt8_Rb_treeINSt7__cxx1112basic_stringIcSt11char_traitsIcESaIcEEES5_St9_IdentityIS5_ESt4lessIS5_ESaIS5_EE5emptyEv(ptr noundef nonnull align 8 dereferenceable(48) %_M_t) #3
  ret i1 %call
}

; Function Attrs: mustprogress nounwind uwtable
define linkonce_odr dso_local noundef nonnull align 8 dereferenceable(48) ptr @_ZNK4node15NodeCategorySet13GetCategoriesB5cxx11Ev(ptr noundef nonnull align 8 dereferenceable(88) %this) #4 comdat align 2 {
entry:
  %this.addr = alloca ptr, align 8
  store ptr %this, ptr %this.addr, align 8
  %this1 = load ptr, ptr %this.addr, align 8
  %categories_ = getelementptr inbounds %"class.node::NodeCategorySet", ptr %this1, i32 0, i32 2
  ret ptr %categories_
}

; Function Attrs: mustprogress nounwind uwtable
define linkonce_odr dso_local noundef ptr @_ZN4node10BaseObject12FromJSObjectEN2v85LocalINS1_5ValueEEE(ptr %value.coerce) #4 comdat align 2 {
entry:
  %slot.addr.i = alloca ptr, align 8
  %this.addr.i.i = alloca ptr, align 8
  %this.addr.i44 = alloca ptr, align 8
  %heap_object_ptr.addr.i38 = alloca i64, align 8
  %offset.addr.i39 = alloca i32, align 4
  %addr.i40 = alloca i64, align 8
  %heap_object_ptr.addr.i32 = alloca i64, align 8
  %offset.addr.i33 = alloca i32, align 4
  %addr.i34 = alloca i64, align 8
  %heap_object_ptr.addr.i27 = alloca i64, align 8
  %offset.addr.i28 = alloca i32, align 4
  %addr.i = alloca i64, align 8
  %heap_object_ptr.addr.i24 = alloca i64, align 8
  %offset.addr.i25 = alloca i32, align 4
  %isolate.addr.i = alloca ptr, align 8
  %heap_object_ptr.addr.i = alloca i64, align 8
  %offset.addr.i = alloca i32, align 4
  %obj.addr.i22 = alloca i64, align 8
  %instance_type.addr.i = alloca i32, align 4
  %obj.addr.i = alloca i64, align 8
  %map.i = alloca i64, align 8
  %value.addr.i = alloca ptr, align 8
  %this.addr.i18 = alloca ptr, align 8
  %other.addr.i19 = alloca ptr, align 8
  %this.addr.i16 = alloca ptr, align 8
  %other.addr.i = alloca ptr, align 8
  %retval.i15 = alloca %"class.v8::Local.261", align 8
  %that.i = alloca %"class.v8::Local", align 8
  %ref.tmp.i = alloca %"class.v8::LocalBase.262", align 8
  %retval.i11 = alloca ptr, align 8
  %this.addr.i12 = alloca ptr, align 8
  %index.addr.i = alloca i32, align 4
  %obj.i = alloca i64, align 8
  %instance_type.i = alloca i32, align 4
  %offset.i = alloca i32, align 4
  %isolate.i = alloca ptr, align 8
  %value.i = alloca i64, align 8
  %retval.i = alloca %"class.v8::Local.261", align 8
  %this.addr.i8 = alloca ptr, align 8
  %agg.tmp.i = alloca %"class.v8::Local", align 8
  %this.addr.i = alloca ptr, align 8
  %value = alloca %"class.v8::Local", align 8
  %obj = alloca %"class.v8::Local.261", align 8
  %coerce.dive = getelementptr inbounds %"class.v8::Local", ptr %value, i32 0, i32 0
  %coerce.dive1 = getelementptr inbounds %"class.v8::LocalBase", ptr %coerce.dive, i32 0, i32 0
  %coerce.dive2 = getelementptr inbounds %"class.v8::IndirectHandleBase", ptr %coerce.dive1, i32 0, i32 0
  store ptr %value.coerce, ptr %coerce.dive2, align 8
  store ptr %value, ptr %this.addr.i8, align 8
  %this1.i9 = load ptr, ptr %this.addr.i8, align 8
  call void @llvm.memcpy.p0.p0.i64(ptr align 8 %agg.tmp.i, ptr align 8 %this1.i9, i64 8, i1 false)
  %0 = load ptr, ptr %agg.tmp.i, align 8
  store ptr %0, ptr %that.i, align 8
  store ptr %ref.tmp.i, ptr %this.addr.i16, align 8
  store ptr %that.i, ptr %other.addr.i, align 8
  %this1.i17 = load ptr, ptr %this.addr.i16, align 8
  %1 = load ptr, ptr %other.addr.i, align 8
  call void @llvm.memcpy.p0.p0.i64(ptr align 8 %this1.i17, ptr align 8 %1, i64 8, i1 false)
  store ptr %retval.i15, ptr %this.addr.i18, align 8
  store ptr %ref.tmp.i, ptr %other.addr.i19, align 8
  %this1.i20 = load ptr, ptr %this.addr.i18, align 8
  %2 = load ptr, ptr %other.addr.i19, align 8
  call void @llvm.memcpy.p0.p0.i64(ptr align 8 %this1.i20, ptr align 8 %2, i64 8, i1 false)
  %3 = load ptr, ptr %retval.i15, align 8
  store ptr %3, ptr %retval.i, align 8
  %4 = load ptr, ptr %retval.i, align 8
  %coerce.dive3 = getelementptr inbounds %"class.v8::Local.261", ptr %obj, i32 0, i32 0
  %coerce.dive4 = getelementptr inbounds %"class.v8::LocalBase.262", ptr %coerce.dive3, i32 0, i32 0
  %coerce.dive5 = getelementptr inbounds %"class.v8::IndirectHandleBase", ptr %coerce.dive4, i32 0, i32 0
  store ptr %4, ptr %coerce.dive5, align 8
  store ptr %obj, ptr %this.addr.i, align 8
  %this1.i = load ptr, ptr %this.addr.i, align 8
  store ptr %this1.i, ptr %this.addr.i44, align 8
  %this1.i45 = load ptr, ptr %this.addr.i44, align 8
  store ptr %this1.i45, ptr %this.addr.i.i, align 8
  %this1.i.i = load ptr, ptr %this.addr.i.i, align 8
  %5 = load ptr, ptr %this1.i.i, align 8
  store ptr %5, ptr %slot.addr.i, align 8
  %6 = load ptr, ptr %slot.addr.i, align 8
  store ptr %6, ptr %this.addr.i12, align 8
  store i32 1, ptr %index.addr.i, align 4
  %this1.i13 = load ptr, ptr %this.addr.i12, align 8
  store ptr %this1.i13, ptr %value.addr.i, align 8
  %7 = load ptr, ptr %value.addr.i, align 8
  %8 = load i64, ptr %7, align 8
  store i64 %8, ptr %obj.i, align 8
  %9 = load i64, ptr %obj.i, align 8
  store i64 %9, ptr %obj.addr.i, align 8
  %10 = load i64, ptr %obj.addr.i, align 8
  store i64 %10, ptr %heap_object_ptr.addr.i24, align 8
  store i32 0, ptr %offset.addr.i25, align 4
  %11 = load i64, ptr %heap_object_ptr.addr.i24, align 8
  %12 = load i32, ptr %offset.addr.i25, align 4
  store i64 %11, ptr %heap_object_ptr.addr.i32, align 8
  store i32 %12, ptr %offset.addr.i33, align 4
  %13 = load i64, ptr %heap_object_ptr.addr.i32, align 8
  %14 = load i32, ptr %offset.addr.i33, align 4
  %conv.i35 = sext i32 %14 to i64
  %add.i36 = add i64 %13, %conv.i35
  %sub.i37 = sub i64 %add.i36, 1
  store i64 %sub.i37, ptr %addr.i34, align 8
  %15 = load i64, ptr %addr.i34, align 8
  %16 = inttoptr i64 %15 to ptr
  %17 = load i64, ptr %16, align 8
  store i64 %17, ptr %map.i, align 8
  %18 = load i64, ptr %map.i, align 8
  store i64 %18, ptr %heap_object_ptr.addr.i27, align 8
  store i32 12, ptr %offset.addr.i28, align 4
  %19 = load i64, ptr %heap_object_ptr.addr.i27, align 8
  %20 = load i32, ptr %offset.addr.i28, align 4
  %conv.i29 = sext i32 %20 to i64
  %add.i30 = add i64 %19, %conv.i29
  %sub.i31 = sub i64 %add.i30, 1
  store i64 %sub.i31, ptr %addr.i, align 8
  %21 = load i64, ptr %addr.i, align 8
  %22 = inttoptr i64 %21 to ptr
  %23 = load i16, ptr %22, align 2
  %conv.i = zext i16 %23 to i32
  store i32 %conv.i, ptr %instance_type.i, align 4
  %24 = load i32, ptr %instance_type.i, align 4
  store i32 %24, ptr %instance_type.addr.i, align 4
  %25 = load i32, ptr %instance_type.addr.i, align 4
  %cmp.i = icmp eq i32 %25, 1040
  br i1 %cmp.i, label %_ZN2v88internal9Internals20CanHaveInternalFieldEi.exit, label %lor.rhs.i

lor.rhs.i:                                        ; preds = %entry
  %26 = load i32, ptr %instance_type.addr.i, align 4
  %sub.i = sub i32 %26, 1057
  %cmp1.i = icmp ule i32 %sub.i, 1001
  br label %_ZN2v88internal9Internals20CanHaveInternalFieldEi.exit

_ZN2v88internal9Internals20CanHaveInternalFieldEi.exit: ; preds = %lor.rhs.i, %entry
  %27 = phi i1 [ true, %entry ], [ %cmp1.i, %lor.rhs.i ]
  br i1 %27, label %if.then.i, label %if.end.i

if.then.i:                                        ; preds = %_ZN2v88internal9Internals20CanHaveInternalFieldEi.exit
  %28 = load i32, ptr %index.addr.i, align 4
  %mul.i = mul nsw i32 8, %28
  %add.i = add nsw i32 24, %mul.i
  store i32 %add.i, ptr %offset.i, align 4
  %29 = load i64, ptr %obj.i, align 8
  store i64 %29, ptr %obj.addr.i22, align 8
  store ptr null, ptr %isolate.i, align 8
  %30 = load ptr, ptr %isolate.i, align 8
  %31 = load i64, ptr %obj.i, align 8
  %32 = load i32, ptr %offset.i, align 4
  store ptr %30, ptr %isolate.addr.i, align 8
  store i64 %31, ptr %heap_object_ptr.addr.i, align 8
  store i32 %32, ptr %offset.addr.i, align 4
  %33 = load i64, ptr %heap_object_ptr.addr.i, align 8
  %34 = load i32, ptr %offset.addr.i, align 4
  store i64 %33, ptr %heap_object_ptr.addr.i38, align 8
  store i32 %34, ptr %offset.addr.i39, align 4
  %35 = load i64, ptr %heap_object_ptr.addr.i38, align 8
  %36 = load i32, ptr %offset.addr.i39, align 4
  %conv.i41 = sext i32 %36 to i64
  %add.i42 = add i64 %35, %conv.i41
  %sub.i43 = sub i64 %add.i42, 1
  store i64 %sub.i43, ptr %addr.i40, align 8
  %37 = load i64, ptr %addr.i40, align 8
  %38 = inttoptr i64 %37 to ptr
  %39 = load i64, ptr %38, align 8
  store i64 %39, ptr %value.i, align 8
  %40 = load i64, ptr %value.i, align 8
  %41 = inttoptr i64 %40 to ptr
  store ptr %41, ptr %retval.i11, align 8
  br label %_ZN2v86Object34GetAlignedPointerFromInternalFieldEi.exit

if.end.i:                                         ; preds = %_ZN2v88internal9Internals20CanHaveInternalFieldEi.exit
  %42 = load i32, ptr %index.addr.i, align 4
  %call7.i = call noundef ptr @_ZN2v86Object38SlowGetAlignedPointerFromInternalFieldEi(ptr noundef nonnull align 1 dereferenceable(1) %this1.i13, i32 noundef %42) #3
  store ptr %call7.i, ptr %retval.i11, align 8
  br label %_ZN2v86Object34GetAlignedPointerFromInternalFieldEi.exit

_ZN2v86Object34GetAlignedPointerFromInternalFieldEi.exit: ; preds = %if.end.i, %if.then.i
  %43 = load ptr, ptr %retval.i11, align 8
  ret ptr %43
}

; Function Attrs: mustprogress nounwind uwtable
define dso_local void @_ZN4node15NodeCategorySet7DisableERKN2v820FunctionCallbackInfoINS1_5ValueEEE(ptr noundef nonnull align 8 dereferenceable(20) %args) #4 align 2 {
entry:
  %this.addr.i.i33 = alloca ptr, align 8
  %location.addr.i.i = alloca ptr, align 8
  %this.addr.i34 = alloca ptr, align 8
  %location.addr.i = alloca ptr, align 8
  %retval.i31 = alloca %"class.v8::LocalBase.262", align 8
  %slot.addr.i32 = alloca ptr, align 8
  %this.addr.i.i = alloca ptr, align 8
  %other.addr.i.i = alloca ptr, align 8
  %retval.i29 = alloca %"class.v8::Local.261", align 8
  %slot.addr.i = alloca ptr, align 8
  %ref.tmp.i = alloca %"class.v8::LocalBase.262", align 8
  %this.addr.i27 = alloca ptr, align 8
  %other.addr.i = alloca ptr, align 8
  %that.i = alloca %"class.v8::Local.261", align 8
  %this.addr.i26 = alloca ptr, align 8
  %retval.i = alloca %"class.v8::Local.261", align 8
  %this.addr.i = alloca ptr, align 8
  %args.addr = alloca ptr, align 8
  %category_set = alloca ptr, align 8
  %agg.tmp = alloca %"class.v8::Local", align 8
  %agg.tmp1 = alloca %"class.v8::Local.261", align 8
  %categories = alloca ptr, align 8
  store ptr %args, ptr %args.addr, align 8
  br label %do.body

do.body:                                          ; preds = %entry
  %0 = load ptr, ptr %args.addr, align 8
  store ptr %0, ptr %this.addr.i, align 8
  %this1.i = load ptr, ptr %this.addr.i, align 8
  %1 = load ptr, ptr %this1.i, align 8
  store ptr %1, ptr %slot.addr.i, align 8
  %2 = load ptr, ptr %slot.addr.i, align 8
  store ptr %2, ptr %slot.addr.i32, align 8
  %3 = load ptr, ptr %slot.addr.i32, align 8
  store ptr %retval.i31, ptr %this.addr.i34, align 8
  store ptr %3, ptr %location.addr.i, align 8
  %this1.i35 = load ptr, ptr %this.addr.i34, align 8
  %4 = load ptr, ptr %location.addr.i, align 8
  store ptr %this1.i35, ptr %this.addr.i.i33, align 8
  store ptr %4, ptr %location.addr.i.i, align 8
  %this1.i.i36 = load ptr, ptr %this.addr.i.i33, align 8
  %5 = load ptr, ptr %location.addr.i.i, align 8
  store ptr %5, ptr %this1.i.i36, align 8
  %6 = load ptr, ptr %retval.i31, align 8
  store ptr %6, ptr %ref.tmp.i, align 8
  store ptr %retval.i29, ptr %this.addr.i.i, align 8
  store ptr %ref.tmp.i, ptr %other.addr.i.i, align 8
  %this1.i.i = load ptr, ptr %this.addr.i.i, align 8
  %7 = load ptr, ptr %other.addr.i.i, align 8
  call void @llvm.memcpy.p0.p0.i64(ptr align 8 %this1.i.i, ptr align 8 %7, i64 8, i1 false)
  %8 = load ptr, ptr %retval.i29, align 8
  store ptr %8, ptr %retval.i, align 8
  %9 = load ptr, ptr %retval.i, align 8
  %coerce.dive = getelementptr inbounds %"class.v8::Local.261", ptr %agg.tmp1, i32 0, i32 0
  %coerce.dive2 = getelementptr inbounds %"class.v8::LocalBase.262", ptr %coerce.dive, i32 0, i32 0
  %coerce.dive3 = getelementptr inbounds %"class.v8::IndirectHandleBase", ptr %coerce.dive2, i32 0, i32 0
  store ptr %9, ptr %coerce.dive3, align 8
  %coerce.dive4 = getelementptr inbounds %"class.v8::Local.261", ptr %agg.tmp1, i32 0, i32 0
  %coerce.dive5 = getelementptr inbounds %"class.v8::LocalBase.262", ptr %coerce.dive4, i32 0, i32 0
  %coerce.dive6 = getelementptr inbounds %"class.v8::IndirectHandleBase", ptr %coerce.dive5, i32 0, i32 0
  %10 = load ptr, ptr %coerce.dive6, align 8
  store ptr %10, ptr %that.i, align 8
  store ptr %agg.tmp, ptr %this.addr.i26, align 8
  %this3.i = load ptr, ptr %this.addr.i26, align 8
  store ptr %this3.i, ptr %this.addr.i27, align 8
  store ptr %that.i, ptr %other.addr.i, align 8
  %this1.i28 = load ptr, ptr %this.addr.i27, align 8
  %11 = load ptr, ptr %other.addr.i, align 8
  call void @llvm.memcpy.p0.p0.i64(ptr align 8 %this1.i28, ptr align 8 %11, i64 8, i1 false)
  %coerce.dive7 = getelementptr inbounds %"class.v8::Local", ptr %agg.tmp, i32 0, i32 0
  %coerce.dive8 = getelementptr inbounds %"class.v8::LocalBase", ptr %coerce.dive7, i32 0, i32 0
  %coerce.dive9 = getelementptr inbounds %"class.v8::IndirectHandleBase", ptr %coerce.dive8, i32 0, i32 0
  %12 = load ptr, ptr %coerce.dive9, align 8
  %call10 = call noundef ptr @_ZN4node10BaseObject12FromJSObjectEN2v85LocalINS1_5ValueEEE(ptr %12)
  store ptr %call10, ptr %category_set, align 8
  %13 = load ptr, ptr %category_set, align 8
  %cmp = icmp eq ptr %13, null
  br i1 %cmp, label %if.then, label %if.end

if.then:                                          ; preds = %do.body
  br label %if.end25

if.end:                                           ; preds = %do.body
  br label %do.end

do.end:                                           ; preds = %if.end
  br label %do.body11

do.body11:                                        ; preds = %do.end
  %14 = load ptr, ptr %category_set, align 8
  %cmp12 = icmp ne ptr %14, null
  %lnot = xor i1 %cmp12, true
  %lnot13 = xor i1 %lnot, true
  %lnot14 = xor i1 %lnot13, true
  br i1 %lnot14, label %if.then15, label %if.end18

if.then15:                                        ; preds = %do.body11
  br label %do.body16

do.body16:                                        ; preds = %if.then15
  call void @_ZN4node6AssertERKNS_13AssertionInfoE(ptr noundef nonnull align 8 dereferenceable(24) @_ZZN4node15NodeCategorySet7DisableERKN2v820FunctionCallbackInfoINS1_5ValueEEEE4args)
  call void @abort() #13
  unreachable

do.end17:                                         ; No predecessors!
  br label %if.end18

if.end18:                                         ; preds = %do.end17, %do.body11
  br label %do.end19

do.end19:                                         ; preds = %if.end18
  %15 = load ptr, ptr %category_set, align 8
  %call20 = call noundef nonnull align 8 dereferenceable(48) ptr @_ZNK4node15NodeCategorySet13GetCategoriesB5cxx11Ev(ptr noundef nonnull align 8 dereferenceable(88) %15)
  store ptr %call20, ptr %categories, align 8
  %16 = load ptr, ptr %category_set, align 8
  %enabled_ = getelementptr inbounds %"class.node::NodeCategorySet", ptr %16, i32 0, i32 1
  %17 = load i8, ptr %enabled_, align 8
  %tobool = trunc i8 %17 to i1
  br i1 %tobool, label %land.lhs.true, label %if.end25

land.lhs.true:                                    ; preds = %do.end19
  %18 = load ptr, ptr %categories, align 8
  %call21 = call noundef zeroext i1 @_ZNKSt3setINSt7__cxx1112basic_stringIcSt11char_traitsIcESaIcEEESt4lessIS5_ESaIS5_EE5emptyEv(ptr noundef nonnull align 8 dereferenceable(48) %18) #3
  br i1 %call21, label %if.end25, label %if.then22

if.then22:                                        ; preds = %land.lhs.true
  %call23 = call noundef ptr @_ZN4node21GetTracingAgentWriterEv()
  %19 = load ptr, ptr %categories, align 8
  call void @_ZN4node7tracing17AgentWriterHandle7DisableERKSt3setINSt7__cxx1112basic_stringIcSt11char_traitsIcESaIcEEESt4lessIS8_ESaIS8_EE(ptr noundef nonnull align 8 dereferenceable(12) %call23, ptr noundef nonnull align 8 dereferenceable(48) %19)
  %20 = load ptr, ptr %category_set, align 8
  %enabled_24 = getelementptr inbounds %"class.node::NodeCategorySet", ptr %20, i32 0, i32 1
  store i8 0, ptr %enabled_24, align 8
  br label %if.end25

if.end25:                                         ; preds = %if.then22, %land.lhs.true, %do.end19, %if.then
  ret void
}