; Function Attrs: mustprogress nounwind uwtable
define dso_local void @_ZN4node15NodeCategorySet7DisableERKN2v820FunctionCallbackInfoINS1_5ValueEEE(ptr nocapture noundef nonnull readonly align 8 dereferenceable(20) %args) #3 align 2 {
entry:
  %0 = load ptr, ptr %args, align 8
  %1 = load i64, ptr %0, align 8
  %sub.i37.i = add i64 %1, -1
  %2 = inttoptr i64 %sub.i37.i to ptr
  %3 = load i64, ptr %2, align 8
  %sub.i31.i = add i64 %3, 11
  %4 = inttoptr i64 %sub.i31.i to ptr
  %5 = load i16, ptr %4, align 2
  %conv.i.i = zext i16 %5 to i32
  %cmp.i.i = icmp eq i16 %5, 1040
  %sub.i.i = add nsw i32 %conv.i.i, -1057
  %cmp1.i.i = icmp ult i32 %sub.i.i, 1002
  %6 = select i1 %cmp.i.i, i1 true, i1 %cmp1.i.i
  br i1 %6, label %if.then.i.i, label %if.end.i.i

if.then.i.i:                                      ; preds = %entry
  %sub.i43.i = add i64 %1, 31
  %7 = inttoptr i64 %sub.i43.i to ptr
  %8 = load i64, ptr %7, align 8
  %9 = inttoptr i64 %8 to ptr
  br label %_ZN4node10BaseObject12FromJSObjectEN2v85LocalINS1_5ValueEEE.exit

if.end.i.i:                                       ; preds = %entry
  %call7.i.i = tail call noundef ptr @_ZN2v86Object38SlowGetAlignedPointerFromInternalFieldEi(ptr noundef nonnull align 1 dereferenceable(1) %0, i32 noundef 1) #16
  br label %_ZN4node10BaseObject12FromJSObjectEN2v85LocalINS1_5ValueEEE.exit

_ZN4node10BaseObject12FromJSObjectEN2v85LocalINS1_5ValueEEE.exit: ; preds = %if.then.i.i, %if.end.i.i
  %retval.i11.0.i = phi ptr [ %9, %if.then.i.i ], [ %call7.i.i, %if.end.i.i ]
  %cmp = icmp eq ptr %retval.i11.0.i, null
  br i1 %cmp, label %if.end25, label %do.end19

do.end19:                                         ; preds = %_ZN4node10BaseObject12FromJSObjectEN2v85LocalINS1_5ValueEEE.exit
  %categories_.i = getelementptr inbounds i8, ptr %retval.i11.0.i, i64 40
  %enabled_ = getelementptr inbounds i8, ptr %retval.i11.0.i, i64 32
  %10 = load i8, ptr %enabled_, align 8
  %11 = and i8 %10, 1
  %tobool.not = icmp eq i8 %11, 0
  br i1 %tobool.not, label %if.end25, label %land.lhs.true

land.lhs.true:                                    ; preds = %do.end19
  %_M_node_count.i.i = getelementptr inbounds i8, ptr %retval.i11.0.i, i64 80
  %12 = load i64, ptr %_M_node_count.i.i, align 8
  %cmp.i.i6 = icmp eq i64 %12, 0
  br i1 %cmp.i.i6, label %if.end25, label %if.then22

if.then22:                                        ; preds = %land.lhs.true
  %13 = load ptr, ptr getelementptr inbounds (%"struct.node::V8Platform", ptr @_ZN4node11per_process11v8_platformE, i64 0, i32 3, i32 0), align 8
  %cmp.not.i = icmp eq ptr %13, null
  br i1 %cmp.not.i, label %_ZN4node7tracing17AgentWriterHandle7DisableERKSt3setINSt7__cxx1112basic_stringIcSt11char_traitsIcESaIcEEESt4lessIS8_ESaIS8_EE.exit, label %if.then.i

if.then.i:                                        ; preds = %if.then22
  %14 = load i32, ptr getelementptr inbounds (%"struct.node::V8Platform", ptr @_ZN4node11per_process11v8_platformE, i64 0, i32 3, i32 1), align 8
  tail call void @_ZN4node7tracing5Agent7DisableEiRKSt3setINSt7__cxx1112basic_stringIcSt11char_traitsIcESaIcEEESt4lessIS8_ESaIS8_EE(ptr noundef nonnull align 8 dereferenceable(1312) %13, i32 noundef %14, ptr noundef nonnull align 8 dereferenceable(48) %categories_.i) #16
  br label %_ZN4node7tracing17AgentWriterHandle7DisableERKSt3setINSt7__cxx1112basic_stringIcSt11char_traitsIcESaIcEEESt4lessIS8_ESaIS8_EE.exit

_ZN4node7tracing17AgentWriterHandle7DisableERKSt3setINSt7__cxx1112basic_stringIcSt11char_traitsIcESaIcEEESt4lessIS8_ESaIS8_EE.exit: ; preds = %if.then22, %if.then.i
  store i8 0, ptr %enabled_, align 8
  br label %if.end25

if.end25:                                         ; preds = %_ZN4node10BaseObject12FromJSObjectEN2v85LocalINS1_5ValueEEE.exit, %_ZN4node7tracing17AgentWriterHandle7DisableERKSt3setINSt7__cxx1112basic_stringIcSt11char_traitsIcESaIcEEESt4lessIS8_ESaIS8_EE.exit, %land.lhs.true, %do.end19
  ret void
}